; Function Attrs: nounwind uwtable
define internal noundef zeroext i1 @SDL_HIDAPI_HapticDriverLg4ff_RunEffect(ptr noundef readonly captures(none) %0, i32 noundef %1, i32 noundef %2) #0 {
  %4 = getelementptr inbounds nuw i8, ptr %0, i64 24
  %5 = load ptr, ptr %4, align 8
  %6 = getelementptr inbounds nuw i8, ptr %5, i64 2944
  %7 = load ptr, ptr %6, align 8
  tail call void @SDL_LockMutex_REAL(ptr noundef %7) #8
  %or.cond.i = icmp ugt i32 %1, 15
  br i1 %or.cond.i, label %lg4ff_effect_slot_valid_active.exit.thread, label %lg4ff_effect_slot_valid_active.exit

lg4ff_effect_slot_valid_active.exit:              ; preds = %3
  %8 = getelementptr inbounds nuw i8, ptr %5, i64 8
  %narrow.i = mul nuw nsw i32 %1, 152
  %9 = zext nneg i32 %narrow.i to i64
  %10 = getelementptr inbounds nuw i8, ptr %8, i64 %9
  %11 = getelementptr inbounds nuw i8, ptr %10, i64 148
  %12 = load i8, ptr %11, align 4, !range !7, !noundef !8
  %13 = trunc nuw i8 %12 to i1
  br i1 %13, label %16, label %lg4ff_effect_slot_valid_active.exit.thread

lg4ff_effect_slot_valid_active.exit.thread:       ; preds = %3, %lg4ff_effect_slot_valid_active.exit
  %14 = load ptr, ptr %6, align 8
  tail call void @SDL_UnlockMutex_REAL(ptr noundef %14) #8
  %15 = tail call zeroext i1 (ptr, ...) @SDL_SetError_REAL(ptr noundef nonnull @.str.10) #8
  br label %40

16:                                               ; preds = %lg4ff_effect_slot_valid_active.exit
  %17 = tail call i64 @SDL_GetTicks_REAL() #8
  %18 = zext nneg i32 %1 to i64
  %19 = getelementptr inbounds nuw [16 x %struct.lg4ff_effect_state], ptr %8, i64 0, i64 %18
  %20 = icmp sgt i32 %2, 0
  %21 = getelementptr inbounds nuw i8, ptr %19, i64 96
  %22 = load i32, ptr %21, align 8
  %23 = and i32 %22, 1
  %.not14.i = icmp eq i32 %23, 0
  br i1 %20, label %24, label %34

24:                                               ; preds = %16
  br i1 %.not14.i, label %25, label %30

25:                                               ; preds = %24
  %26 = getelementptr inbounds nuw i8, ptr %5, i64 2632
  %27 = load i32, ptr %26, align 8
  %28 = add nsw i32 %27, 1
  store i32 %28, ptr %26, align 8
  %29 = or disjoint i32 %22, 1
  br label %30

30:                                               ; preds = %25, %24
  %31 = phi i32 [ %29, %25 ], [ 1, %24 ]
  store i32 %31, ptr %21, align 8
  %32 = getelementptr inbounds nuw i8, ptr %19, i64 72
  store i64 %17, ptr %32, align 8
  %33 = getelementptr inbounds nuw i8, ptr %19, i64 128
  store i32 %2, ptr %33, align 8
  br label %lg4ff_play_effect.exit

34:                                               ; preds = %16
  br i1 %.not14.i, label %lg4ff_play_effect.exit, label %35

35:                                               ; preds = %34
  store i32 0, ptr %21, align 8
  %36 = getelementptr inbounds nuw i8, ptr %5, i64 2632
  %37 = load i32, ptr %36, align 8
  %38 = add nsw i32 %37, -1
  store i32 %38, ptr %36, align 8
  br label %lg4ff_play_effect.exit

lg4ff_play_effect.exit:                           ; preds = %30, %34, %35
  %39 = load ptr, ptr %6, align 8
  tail call void @SDL_UnlockMutex_REAL(ptr noundef %39) #8
  br label %40

40:                                               ; preds = %lg4ff_play_effect.exit, %lg4ff_effect_slot_valid_active.exit.thread
  %.0.i11 = phi i1 [ true, %lg4ff_play_effect.exit ], [ false, %lg4ff_effect_slot_valid_active.exit.thread ]
  ret i1 %.0.i11
}